target datalayout = "e-m:e-p270:32:32-p271:32:32-p272:64:64-i64:64-i128:128-f80:128-n8:16:32:64-S128"
target triple = "x86_64-pc-linux-gnu"

%struct.evp_cipher_ctx_st = type { ptr, ptr, i32, i32, [16 x i8], [16 x i8], [32 x i8], i32, ptr, i32, i32, i64, ptr, i32, i32, [32 x i8], i64, ptr, ptr }
%struct.EVP_AES_XTS_CTX = type { %union.anon.3, %union.anon.3, %struct.xts128_context, ptr }
%union.anon.3 = type { double, [240 x i8] }
%struct.xts128_context = type { ptr, ptr, ptr, ptr }

@.str = private unnamed_addr constant [30 x i8] c"../openssl/crypto/evp/e_aes.c\00", align 1
@__func__.aesni_xts_init_key = private unnamed_addr constant [19 x i8] c"aesni_xts_init_key\00", align 1

; Function Attrs: nounwind uwtable
define internal i32 @aesni_xts_init_key(ptr noundef %0, ptr noundef %1, ptr noundef %2, i32 noundef %3) #0 {
  %5 = alloca i32, align 4
  %6 = alloca ptr, align 8
  %7 = alloca ptr, align 8
  %8 = alloca ptr, align 8
  %9 = alloca i32, align 4
  %10 = alloca ptr, align 8
  %11 = alloca i32, align 4
  %12 = alloca i32, align 4
  %13 = alloca i32, align 4
  %14 = alloca i32, align 4
  store ptr %0, ptr %6, align 8, !tbaa !7
  store ptr %1, ptr %7, align 8, !tbaa !10
  store ptr %2, ptr %8, align 8, !tbaa !10
  store i32 %3, ptr %9, align 4, !tbaa !3
  call void @llvm.lifetime.start.p0(i64 8, ptr %10) #4
  %15 = load ptr, ptr %6, align 8, !tbaa !7
  %16 = call ptr @EVP_CIPHER_CTX_get_cipher_data(ptr noundef %15)
  store ptr %16, ptr %10, align 8, !tbaa !12
  %17 = load ptr, ptr %8, align 8, !tbaa !10
  %18 = icmp eq ptr %17, null
  br i1 %18, label %19, label %23

19:                                               ; preds = %4
  %20 = load ptr, ptr %7, align 8, !tbaa !10
  %21 = icmp eq ptr %20, null
  br i1 %21, label %22, label %23

22:                                               ; preds = %19
  store i32 1, ptr %5, align 4
  store i32 1, ptr %11, align 4
  br label %109

23:                                               ; preds = %19, %4
  %24 = load ptr, ptr %7, align 8, !tbaa !10
  %25 = icmp ne ptr %24, null
  br i1 %25, label %26, label %95

26:                                               ; preds = %23
  call void @llvm.lifetime.start.p0(i64 4, ptr %12) #4
  %27 = load ptr, ptr %6, align 8, !tbaa !7
  %28 = call i32 @EVP_CIPHER_CTX_get_key_length(ptr noundef %27)
  store i32 %28, ptr %12, align 4, !tbaa !3
  call void @llvm.lifetime.start.p0(i64 4, ptr %13) #4
  %29 = load i32, ptr %12, align 4, !tbaa !3
  %30 = sdiv i32 %29, 2
  store i32 %30, ptr %13, align 4, !tbaa !3
  call void @llvm.lifetime.start.p0(i64 4, ptr %14) #4
  %31 = load i32, ptr %13, align 4, !tbaa !3
  %32 = mul nsw i32 %31, 8
  store i32 %32, ptr %14, align 4, !tbaa !3
  %33 = load i32, ptr %12, align 4, !tbaa !3
  %34 = icmp sle i32 %33, 0
  br i1 %34, label %35, label %36

35:                                               ; preds = %26
  call void @ERR_new()
  call void @ERR_set_debug(ptr noundef @.str, i32 noundef 283, ptr noundef @__func__.aesni_xts_init_key)
  call void (i32, i32, ptr, ...) @ERR_set_error(i32 noundef 6, i32 noundef 130, ptr noundef null)
  store i32 0, ptr %5, align 4
  store i32 1, ptr %11, align 4
  br label %92

36:                                               ; preds = %26
  %37 = load i32, ptr %9, align 4, !tbaa !3
  %38 = icmp ne i32 %37, 0
  br i1 %38, label %39, label %50

39:                                               ; preds = %36
  %40 = load ptr, ptr %7, align 8, !tbaa !10
  %41 = load ptr, ptr %7, align 8, !tbaa !10
  %42 = load i32, ptr %13, align 4, !tbaa !3
  %43 = sext i32 %42 to i64
  %44 = getelementptr inbounds i8, ptr %41, i64 %43
  %45 = load i32, ptr %13, align 4, !tbaa !3
  %46 = sext i32 %45 to i64
  %47 = call i32 @CRYPTO_memcmp(ptr noundef %40, ptr noundef %44, i64 noundef %46)
  %48 = icmp eq i32 %47, 0
  br i1 %48, label %49, label %50

49:                                               ; preds = %39
  call void @ERR_new()
  call void @ERR_set_debug(ptr noundef @.str, i32 noundef 294, ptr noundef @__func__.aesni_xts_init_key)
  call void (i32, i32, ptr, ...) @ERR_set_error(i32 noundef 6, i32 noundef 192, ptr noundef null)
  store i32 0, ptr %5, align 4
  store i32 1, ptr %11, align 4
  br label %92

50:                                               ; preds = %39, %36
  %51 = load i32, ptr %9, align 4, !tbaa !3
  %52 = icmp ne i32 %51, 0
  br i1 %52, label %53, label %64

53:                                               ; preds = %50
  %54 = load ptr, ptr %7, align 8, !tbaa !10
  %55 = load i32, ptr %14, align 4, !tbaa !3
  %56 = load ptr, ptr %10, align 8, !tbaa !12
  %57 = getelementptr inbounds nuw %struct.EVP_AES_XTS_CTX, ptr %56, i32 0, i32 0
  %58 = call i32 @aesni_set_encrypt_key(ptr noundef %54, i32 noundef %55, ptr noundef %57)
  %59 = load ptr, ptr %10, align 8, !tbaa !12
  %60 = getelementptr inbounds nuw %struct.EVP_AES_XTS_CTX, ptr %59, i32 0, i32 2
  %61 = getelementptr inbounds nuw %struct.xts128_context, ptr %60, i32 0, i32 2
  store ptr @aesni_encrypt, ptr %61, align 8, !tbaa !42
  %62 = load ptr, ptr %10, align 8, !tbaa !12
  %63 = getelementptr inbounds nuw %struct.EVP_AES_XTS_CTX, ptr %62, i32 0, i32 3
  store ptr @aesni_xts_encrypt, ptr %63, align 8, !tbaa !45
  br label %75

64:                                               ; preds = %50
  %65 = load ptr, ptr %7, align 8, !tbaa !10
  %66 = load i32, ptr %14, align 4, !tbaa !3
  %67 = load ptr, ptr %10, align 8, !tbaa !12
  %68 = getelementptr inbounds nuw %struct.EVP_AES_XTS_CTX, ptr %67, i32 0, i32 0
  %69 = call i32 @aesni_set_decrypt_key(ptr noundef %65, i32 noundef %66, ptr noundef %68)
  %70 = load ptr, ptr %10, align 8, !tbaa !12
  %71 = getelementptr inbounds nuw %struct.EVP_AES_XTS_CTX, ptr %70, i32 0, i32 2
  %72 = getelementptr inbounds nuw %struct.xts128_context, ptr %71, i32 0, i32 2
  store ptr @aesni_decrypt, ptr %72, align 8, !tbaa !42
  %73 = load ptr, ptr %10, align 8, !tbaa !12
  %74 = getelementptr inbounds nuw %struct.EVP_AES_XTS_CTX, ptr %73, i32 0, i32 3
  store ptr @aesni_xts_decrypt, ptr %74, align 8, !tbaa !45
  br label %75

75:                                               ; preds = %64, %53
  %76 = load ptr, ptr %7, align 8, !tbaa !10
  %77 = load i32, ptr %13, align 4, !tbaa !3
  %78 = sext i32 %77 to i64
  %79 = getelementptr inbounds i8, ptr %76, i64 %78
  %80 = load i32, ptr %14, align 4, !tbaa !3
  %81 = load ptr, ptr %10, align 8, !tbaa !12
  %82 = getelementptr inbounds nuw %struct.EVP_AES_XTS_CTX, ptr %81, i32 0, i32 1
  %83 = call i32 @aesni_set_encrypt_key(ptr noundef %79, i32 noundef %80, ptr noundef %82)
  %84 = load ptr, ptr %10, align 8, !tbaa !12
  %85 = getelementptr inbounds nuw %struct.EVP_AES_XTS_CTX, ptr %84, i32 0, i32 2
  %86 = getelementptr inbounds nuw %struct.xts128_context, ptr %85, i32 0, i32 3
  store ptr @aesni_encrypt, ptr %86, align 8, !tbaa !46
  %87 = load ptr, ptr %10, align 8, !tbaa !12
  %88 = getelementptr inbounds nuw %struct.EVP_AES_XTS_CTX, ptr %87, i32 0, i32 0
  %89 = load ptr, ptr %10, align 8, !tbaa !12
  %90 = getelementptr inbounds nuw %struct.EVP_AES_XTS_CTX, ptr %89, i32 0, i32 2
  %91 = getelementptr inbounds nuw %struct.xts128_context, ptr %90, i32 0, i32 0
  store ptr %88, ptr %91, align 8, !tbaa !47
  store i32 0, ptr %11, align 4
  br label %92

92:                                               ; preds = %75, %49, %35
  call void @llvm.lifetime.end.p0(i64 4, ptr %14) #4
  call void @llvm.lifetime.end.p0(i64 4, ptr %13) #4
  call void @llvm.lifetime.end.p0(i64 4, ptr %12) #4
  %93 = load i32, ptr %11, align 4
  switch i32 %93, label %109 [
    i32 0, label %94
  ]

94:                                               ; preds = %92
  br label %95

95:                                               ; preds = %94, %23
  %96 = load ptr, ptr %8, align 8, !tbaa !10
  %97 = icmp ne ptr %96, null
  br i1 %97, label %98, label %108

98:                                               ; preds = %95
  %99 = load ptr, ptr %10, align 8, !tbaa !12
  %100 = getelementptr inbounds nuw %struct.EVP_AES_XTS_CTX, ptr %99, i32 0, i32 1
  %101 = load ptr, ptr %10, align 8, !tbaa !12
  %102 = getelementptr inbounds nuw %struct.EVP_AES_XTS_CTX, ptr %101, i32 0, i32 2
  %103 = getelementptr inbounds nuw %struct.xts128_context, ptr %102, i32 0, i32 1
  store ptr %100, ptr %103, align 8, !tbaa !48
  %104 = load ptr, ptr %6, align 8, !tbaa !7
  %105 = getelementptr inbounds nuw %struct.evp_cipher_ctx_st, ptr %104, i32 0, i32 5
  %106 = getelementptr inbounds [16 x i8], ptr %105, i64 0, i64 0
  %107 = load ptr, ptr %8, align 8, !tbaa !10
  call void @llvm.memcpy.p0.p0.i64(ptr align 8 %106, ptr align 1 %107, i64 16, i1 false)
  br label %108

108:                                              ; preds = %98, %95
  store i32 1, ptr %5, align 4
  store i32 1, ptr %11, align 4
  br label %109

109:                                              ; preds = %108, %92, %22
  call void @llvm.lifetime.end.p0(i64 8, ptr %10) #4
  %110 = load i32, ptr %5, align 4
  ret i32 %110
}