; Function Attrs: nounwind uwtable
define internal range(i32 0, 2) i32 @aesni_xts_init_key(ptr noundef %0, ptr noundef %1, ptr noundef readonly captures(address_is_null) %2, i32 noundef %3) #2 {
  %5 = tail call ptr @EVP_CIPHER_CTX_get_cipher_data(ptr noundef %0) #8
  %6 = icmp eq ptr %2, null
  %7 = icmp eq ptr %1, null
  %or.cond = and i1 %7, %6
  br i1 %or.cond, label %.critedge44, label %8

8:                                                ; preds = %4
  br i1 %7, label %35, label %9

9:                                                ; preds = %8
  %10 = tail call i32 @EVP_CIPHER_CTX_get_key_length(ptr noundef %0) #8
  %11 = sdiv i32 %10, 2
  %12 = shl nsw i32 %11, 3
  %13 = icmp slt i32 %10, 1
  br i1 %13, label %14, label %15

14:                                               ; preds = %9
  tail call void @ERR_new() #8
  tail call void @ERR_set_debug(ptr noundef nonnull @.str, i32 noundef 283, ptr noundef nonnull @__func__.aesni_xts_init_key) #8
  tail call void (i32, i32, ptr, ...) @ERR_set_error(i32 noundef 6, i32 noundef 130, ptr noundef null) #8
  br label %.critedge44

15:                                               ; preds = %9
  %.not41 = icmp eq i32 %3, 0
  br i1 %.not41, label %.critedge, label %16

16:                                               ; preds = %15
  %17 = zext nneg i32 %11 to i64
  %18 = getelementptr inbounds nuw i8, ptr %1, i64 %17
  %19 = tail call i32 @CRYPTO_memcmp(ptr noundef nonnull %1, ptr noundef nonnull %18, i64 noundef %17) #8
  %20 = icmp eq i32 %19, 0
  br i1 %20, label %21, label %22

21:                                               ; preds = %16
  tail call void @ERR_new() #8
  tail call void @ERR_set_debug(ptr noundef nonnull @.str, i32 noundef 294, ptr noundef nonnull @__func__.aesni_xts_init_key) #8
  tail call void (i32, i32, ptr, ...) @ERR_set_error(i32 noundef 6, i32 noundef 192, ptr noundef null) #8
  br label %.critedge44

22:                                               ; preds = %16
  %23 = tail call i32 @aesni_set_encrypt_key(ptr noundef nonnull %1, i32 noundef %12, ptr noundef %5) #8
  %24 = getelementptr inbounds nuw i8, ptr %5, i64 512
  store ptr @aesni_encrypt, ptr %24, align 8, !tbaa !37
  %25 = getelementptr inbounds nuw i8, ptr %5, i64 528
  store ptr @aesni_xts_encrypt, ptr %25, align 8, !tbaa !40
  br label %29

.critedge:                                        ; preds = %15
  %26 = tail call i32 @aesni_set_decrypt_key(ptr noundef nonnull %1, i32 noundef %12, ptr noundef %5) #8
  %27 = getelementptr inbounds nuw i8, ptr %5, i64 512
  store ptr @aesni_decrypt, ptr %27, align 8, !tbaa !37
  %28 = getelementptr inbounds nuw i8, ptr %5, i64 528
  store ptr @aesni_xts_decrypt, ptr %28, align 8, !tbaa !40
  %.pre = zext nneg i32 %11 to i64
  br label %29

29:                                               ; preds = %.critedge, %22
  %.pre-phi = phi i64 [ %.pre, %.critedge ], [ %17, %22 ]
  %30 = getelementptr inbounds nuw i8, ptr %1, i64 %.pre-phi
  %31 = getelementptr inbounds nuw i8, ptr %5, i64 248
  %32 = tail call i32 @aesni_set_encrypt_key(ptr noundef nonnull %30, i32 noundef %12, ptr noundef nonnull %31) #8
  %33 = getelementptr inbounds nuw i8, ptr %5, i64 496
  %34 = getelementptr inbounds nuw i8, ptr %5, i64 520
  store ptr @aesni_encrypt, ptr %34, align 8, !tbaa !41
  store ptr %5, ptr %33, align 8, !tbaa !42
  br label %35

35:                                               ; preds = %29, %8
  br i1 %6, label %.critedge44, label %36

36:                                               ; preds = %35
  %37 = getelementptr inbounds nuw i8, ptr %5, i64 248
  %38 = getelementptr inbounds nuw i8, ptr %5, i64 504
  store ptr %37, ptr %38, align 8, !tbaa !43
  %39 = getelementptr inbounds nuw i8, ptr %0, i64 40
  tail call void @llvm.memcpy.p0.p0.i64(ptr noundef nonnull align 8 dereferenceable(16) %39, ptr noundef nonnull align 1 dereferenceable(16) %2, i64 16, i1 false)
  br label %.critedge44

.critedge44:                                      ; preds = %14, %21, %35, %36, %4
  %.0 = phi i32 [ 1, %4 ], [ 1, %36 ], [ 1, %35 ], [ 0, %21 ], [ 0, %14 ]
  ret i32 %.0
}